; Function Attrs: mustprogress uwtable
define noundef zeroext i1 @_ZN32pxrInternal_v0_24__pxrReserved__40UsdImagingExtentResolvingSceneIndex_Impl33_ContainsExtentsHintWithoutExtentERKNS_20HdSceneIndexObserver16DirtiedPrimEntryE(ptr noundef nonnull align 8 dereferenceable(464) %0) local_unnamed_addr #1 {
  %2 = getelementptr inbounds nuw i8, ptr %0, i64 8
  %3 = tail call noundef nonnull align 8 dereferenceable(56) ptr @_ZN32pxrInternal_v0_24__pxrReserved__27UsdImagingExtentsHintSchema17GetDefaultLocatorEv()
  %4 = tail call noundef zeroext i1 @_ZNK32pxrInternal_v0_24__pxrReserved__22HdDataSourceLocatorSet10IntersectsERKNS_19HdDataSourceLocatorE(ptr noundef nonnull align 8 dereferenceable(456) %2, ptr noundef nonnull align 8 dereferenceable(56) %3)
  br i1 %4, label %5, label %9

5:                                                ; preds = %1
  %6 = tail call noundef nonnull align 8 dereferenceable(56) ptr @_ZN32pxrInternal_v0_24__pxrReserved__14HdExtentSchema17GetDefaultLocatorEv()
  %7 = tail call noundef zeroext i1 @_ZNK32pxrInternal_v0_24__pxrReserved__22HdDataSourceLocatorSet8ContainsERKNS_19HdDataSourceLocatorE(ptr noundef nonnull align 8 dereferenceable(456) %2, ptr noundef nonnull align 8 dereferenceable(56) %6)
  %8 = xor i1 %7, true
  br label %9

9:                                                ; preds = %5, %1
  %10 = phi i1 [ false, %1 ], [ %8, %5 ]
  ret i1 %10
}